; Function Attrs: mustprogress nofree norecurse nosync nounwind memory(read, argmem: readwrite, inaccessiblemem: none) uwtable
define noundef range(i32 0, 2) i32 @_Z14ConvertFromPBNPKcPA4_j(ptr nocapture noundef readonly %0, ptr nocapture noundef %1) local_unnamed_addr #0 {
.preheader.preheader:
  tail call void @llvm.memset.p0.i64(ptr noundef nonnull align 4 dereferenceable(64) %1, i8 0, i64 64, i1 false)
  br label %.preheader

.preheader:                                       ; preds = %.preheader.preheader, %7
  %indvars.iv101 = phi i64 [ 2, %.preheader.preheader ], [ %indvars.iv.next102, %7 ]
  %indvars.iv = phi i64 [ 0, %.preheader.preheader ], [ %indvars.iv.next, %7 ]
  %2 = getelementptr inbounds i8, ptr %0, i64 %indvars.iv
  %3 = load i8, ptr %2, align 1
  switch i8 %3, label %4 [
    i8 87, label %.critedge
    i8 78, label %.critedge
    i8 69, label %.critedge
    i8 83, label %.critedge
    i8 119, label %.critedge
    i8 110, label %.critedge
    i8 101, label %.critedge
  ]

4:                                                ; preds = %.preheader
  %5 = icmp ne i8 %3, 115
  %6 = icmp ult i64 %indvars.iv, 3
  %or.cond = and i1 %6, %5
  br i1 %or.cond, label %7, label %.critedge

7:                                                ; preds = %4
  %indvars.iv.next = add nuw nsw i64 %indvars.iv, 1
  %indvars.iv.next102 = add nuw nsw i64 %indvars.iv101, 1
  br label %.preheader, !llvm.loop !4

.critedge:                                        ; preds = %.preheader, %.preheader, %.preheader, %.preheader, %.preheader, %.preheader, %.preheader, %4
  %8 = icmp ugt i64 %indvars.iv, 2
  br i1 %8, label %.critedge2, label %9

9:                                                ; preds = %.critedge
  switch i8 %3, label %12 [
    i8 78, label %.lr.ph.preheader
    i8 110, label %.lr.ph.preheader
    i8 69, label %10
    i8 101, label %10
    i8 83, label %11
    i8 115, label %11
  ]

10:                                               ; preds = %9, %9
  br label %.lr.ph.preheader

11:                                               ; preds = %9, %9
  br label %.lr.ph.preheader

12:                                               ; preds = %9
  br label %.lr.ph.preheader

.lr.ph.preheader:                                 ; preds = %11, %12, %10, %9, %9
  %.074 = phi i32 [ 1, %10 ], [ 2, %11 ], [ 3, %12 ], [ 0, %9 ], [ 0, %9 ]
  br label %.lr.ph

.lr.ph:                                           ; preds = %.lr.ph.preheader, %45
  %indvars.iv103 = phi i64 [ %indvars.iv101, %.lr.ph.preheader ], [ %indvars.iv.next104, %45 ]
  %.07196 = phi i32 [ 0, %.lr.ph.preheader ], [ %.1, %45 ]
  %.07295 = phi i32 [ 0, %.lr.ph.preheader ], [ %.173, %45 ]
  %13 = getelementptr inbounds i8, ptr %0, i64 %indvars.iv103
  %14 = load i8, ptr %13, align 1
  %.not89 = icmp eq i8 %14, 0
  br i1 %.not89, label %.critedge2, label %15

15:                                               ; preds = %.lr.ph
  %16 = tail call noundef i32 @_Z6IsCardc(i8 noundef signext %14)
  %.not90 = icmp eq i32 %16, 0
  br i1 %.not90, label %40, label %17

17:                                               ; preds = %15
  switch i32 %.074, label %default.unreachable [
    i32 0, label %29
    i32 1, label %18
    i32 2, label %22
    i32 3, label %26
  ]

18:                                               ; preds = %17
  switch i32 %.07295, label %20 [
    i32 0, label %29
    i32 3, label %19
  ]

19:                                               ; preds = %18
  br label %29

20:                                               ; preds = %18
  %21 = add nsw i32 %.07295, 1
  br label %29

22:                                               ; preds = %17
  switch i32 %.07295, label %24 [
    i32 0, label %29
    i32 1, label %23
  ]

23:                                               ; preds = %22
  br label %29

24:                                               ; preds = %22
  %25 = add nsw i32 %.07295, -2
  br label %29

default.unreachable:                              ; preds = %17
  unreachable

26:                                               ; preds = %17
  %27 = icmp eq i32 %.07295, 0
  %28 = add nsw i32 %.07295, -1
  %spec.select = select i1 %27, i32 3, i32 %28
  br label %29

29:                                               ; preds = %26, %22, %18, %17, %24, %23, %20, %19
  %.0 = phi i32 [ 3, %23 ], [ %25, %24 ], [ 0, %19 ], [ %21, %20 ], [ %.07295, %17 ], [ 1, %18 ], [ 2, %22 ], [ %spec.select, %26 ]
  %30 = zext nneg i32 %16 to i64
  %31 = getelementptr inbounds [16 x i16], ptr @bitMapRank, i64 0, i64 %30
  %32 = load i16, ptr %31, align 2
  %33 = zext i16 %32 to i32
  %34 = shl nuw nsw i32 %33, 2
  %35 = sext i32 %.0 to i64
  %36 = sext i32 %.07196 to i64
  %37 = getelementptr inbounds [4 x i32], ptr %1, i64 %35, i64 %36
  %38 = load i32, ptr %37, align 4
  %39 = or i32 %34, %38
  store i32 %39, ptr %37, align 4
  br label %45

40:                                               ; preds = %15
  switch i8 %14, label %45 [
    i8 46, label %41
    i8 32, label %43
  ]

41:                                               ; preds = %40
  %42 = add nsw i32 %.07196, 1
  br label %45

43:                                               ; preds = %40
  %44 = add nsw i32 %.07295, 1
  br label %45

45:                                               ; preds = %40, %41, %43, %29
  %.173 = phi i32 [ %.07295, %29 ], [ %.07295, %41 ], [ %44, %43 ], [ %.07295, %40 ]
  %.1 = phi i32 [ %.07196, %29 ], [ %42, %41 ], [ 0, %43 ], [ %.07196, %40 ]
  %indvars.iv.next104 = add nuw nsw i64 %indvars.iv103, 1
  %exitcond.not = icmp eq i64 %indvars.iv.next104, 80
  br i1 %exitcond.not, label %.critedge2, label %.lr.ph, !llvm.loop !6

.critedge2:                                       ; preds = %45, %.lr.ph, %.critedge
  %.070 = phi i32 [ 0, %.critedge ], [ 1, %.lr.ph ], [ 1, %45 ]
  ret i32 %.070
}